#include <math.h>
#include <stdio.h>
#include <stdlib.h>
#include <string.h>

main()
{
      int x,y,z,i,j,k;
      int a[100][100]={0},b[100][100]={0},c[100][100]={0};
      scanf("%d %d",&x,&y);
      for(i=0;i<x;i++)
      {
         for(j=0;j<y;j++)
         scanf("%d",&a[i][j]);
      }
      scanf("%d %d",&y,&z);
      for(i=0;i<y;i++)
      {
         for(j=0;j<z;j++)
         scanf("%d",&b[i][j]);
      }
      for(i=0;i<x;i++)
         for(j=0;j<z;j++)
            for(k=0;k<y;k++)
              c[i][j]+=a[i][k]*b[k][j];
      for(i=0;i<x;i++)
      {
         printf("%d",c[i][0]);             
         for(j=1;j<z;j++)
         printf(" %d",c[i][j]);
         printf("\n");
      }
      getchar();getchar();
      }
         
      
